target datalayout = "e-m:e-p270:32:32-p271:32:32-p272:64:64-i64:64-i128:128-f80:128-n8:16:32:64-S128"
target triple = "x86_64-pc-linux-gnu"

; Function Attrs: nounwind uwtable
define internal i64 @esc_enc_len(ptr noundef %0, i64 noundef %1) #0 {
  %3 = alloca ptr, align 8
  %4 = alloca i64, align 8
  %5 = alloca ptr, align 8
  %6 = alloca i64, align 8
  store ptr %0, ptr %3, align 8
  store i64 %1, ptr %4, align 8
  call void @llvm.lifetime.start.p0(i64 8, ptr %5) #6
  %7 = load ptr, ptr %3, align 8
  %8 = load i64, ptr %4, align 8
  %9 = getelementptr inbounds nuw i8, ptr %7, i64 %8
  store ptr %9, ptr %5, align 8
  call void @llvm.lifetime.start.p0(i64 8, ptr %6) #6
  store i64 0, ptr %6, align 8
  br label %10

10:                                               ; preds = %40, %2
  %11 = load ptr, ptr %3, align 8
  %12 = load ptr, ptr %5, align 8
  %13 = icmp ult ptr %11, %12
  br i1 %13, label %14, label %43

14:                                               ; preds = %10
  %15 = load ptr, ptr %3, align 8
  %16 = load i8, ptr %15, align 1
  %17 = sext i8 %16 to i32
  %18 = icmp eq i32 %17, 0
  br i1 %18, label %25, label %19

19:                                               ; preds = %14
  %20 = load ptr, ptr %3, align 8
  %21 = load i8, ptr %20, align 1
  %22 = zext i8 %21 to i32
  %23 = and i32 %22, 128
  %24 = icmp ne i32 %23, 0
  br i1 %24, label %25, label %28

25:                                               ; preds = %19, %14
  %26 = load i64, ptr %6, align 8
  %27 = add i64 %26, 4
  store i64 %27, ptr %6, align 8
  br label %40

28:                                               ; preds = %19
  %29 = load ptr, ptr %3, align 8
  %30 = load i8, ptr %29, align 1
  %31 = sext i8 %30 to i32
  %32 = icmp eq i32 %31, 92
  br i1 %32, label %33, label %36

33:                                               ; preds = %28
  %34 = load i64, ptr %6, align 8
  %35 = add i64 %34, 2
  store i64 %35, ptr %6, align 8
  br label %39

36:                                               ; preds = %28
  %37 = load i64, ptr %6, align 8
  %38 = add i64 %37, 1
  store i64 %38, ptr %6, align 8
  br label %39

39:                                               ; preds = %36, %33
  br label %40

40:                                               ; preds = %39, %25
  %41 = load ptr, ptr %3, align 8
  %42 = getelementptr inbounds nuw i8, ptr %41, i32 1
  store ptr %42, ptr %3, align 8
  br label %10, !llvm.loop !10

43:                                               ; preds = %10
  %44 = load i64, ptr %6, align 8
  call void @llvm.lifetime.end.p0(i64 8, ptr %6) #6
  call void @llvm.lifetime.end.p0(i64 8, ptr %5) #6
  ret i64 %44
}