; Function Attrs: nofree norecurse nosync nounwind memory(argmem: read) uwtable
define internal i64 @esc_enc_len(ptr noundef readonly captures(address) %0, i64 noundef %1) #5 {
  %3 = getelementptr inbounds nuw i8, ptr %0, i64 %1
  %.not = icmp eq i64 %1, 0
  br i1 %.not, label %._crit_edge, label %.lr.ph

.lr.ph:                                           ; preds = %2, %.lr.ph
  %.014 = phi i64 [ %6, %.lr.ph ], [ 0, %2 ]
  %.01113 = phi ptr [ %7, %.lr.ph ], [ %0, %2 ]
  %4 = load i8, ptr %.01113, align 1
  %or.cond = icmp sgt i8 %4, 0
  %5 = icmp eq i8 %4, 92
  %. = select i1 %5, i64 2, i64 1
  %.sink = select i1 %or.cond, i64 %., i64 4
  %6 = add i64 %.014, %.sink
  %7 = getelementptr inbounds nuw i8, ptr %.01113, i64 1
  %8 = icmp ult ptr %7, %3
  br i1 %8, label %.lr.ph, label %._crit_edge, !llvm.loop !10

._crit_edge:                                      ; preds = %.lr.ph, %2
  %.0.lcssa = phi i64 [ 0, %2 ], [ %6, %.lr.ph ]
  ret i64 %.0.lcssa
}